target datalayout = "e-m:e-p270:32:32-p271:32:32-p272:64:64-i64:64-i128:128-f80:128-n8:16:32:64-S128"
target triple = "x86_64-pc-linux-gnu"

; Function Attrs: alwaysinline nounwind willreturn memory(none) uwtable
define internal i32 @av_clip_c(i32 noundef %0, i32 noundef %1, i32 noundef %2) #8 {
  %4 = alloca i32, align 4
  %5 = alloca i32, align 4
  %6 = alloca i32, align 4
  %7 = alloca i32, align 4
  store i32 %0, ptr %5, align 4, !tbaa !11
  store i32 %1, ptr %6, align 4, !tbaa !11
  store i32 %2, ptr %7, align 4, !tbaa !11
  %8 = load i32, ptr %5, align 4, !tbaa !11
  %9 = load i32, ptr %6, align 4, !tbaa !11
  %10 = icmp slt i32 %8, %9
  br i1 %10, label %11, label %13

11:                                               ; preds = %3
  %12 = load i32, ptr %6, align 4, !tbaa !11
  store i32 %12, ptr %4, align 4
  br label %21

13:                                               ; preds = %3
  %14 = load i32, ptr %5, align 4, !tbaa !11
  %15 = load i32, ptr %7, align 4, !tbaa !11
  %16 = icmp sgt i32 %14, %15
  br i1 %16, label %17, label %19

17:                                               ; preds = %13
  %18 = load i32, ptr %7, align 4, !tbaa !11
  store i32 %18, ptr %4, align 4
  br label %21

19:                                               ; preds = %13
  %20 = load i32, ptr %5, align 4, !tbaa !11
  store i32 %20, ptr %4, align 4
  br label %21

21:                                               ; preds = %19, %17, %11
  %22 = load i32, ptr %4, align 4
  ret i32 %22
}

; Function Attrs: nounwind uwtable
define internal void @filter16_sobel(ptr noundef %0, i32 noundef %1, float noundef %2, float noundef %3, ptr noundef %4, ptr noundef %5, i32 noundef %6, i32 noundef %7, i32 noundef %8, i32 noundef %9, i32 noundef %10) #0 {
  %12 = alloca ptr, align 8
  %13 = alloca i32, align 4
  %14 = alloca float, align 4
  %15 = alloca float, align 4
  %16 = alloca ptr, align 8
  %17 = alloca ptr, align 8
  %18 = alloca i32, align 4
  %19 = alloca i32, align 4
  %20 = alloca i32, align 4
  %21 = alloca i32, align 4
  %22 = alloca i32, align 4
  %23 = alloca ptr, align 8
  %24 = alloca i32, align 4
  %25 = alloca float, align 4
  %26 = alloca float, align 4
  store ptr %0, ptr %12, align 8, !tbaa !9
  store i32 %1, ptr %13, align 4, !tbaa !11
  store float %2, ptr %14, align 4, !tbaa !52
  store float %3, ptr %15, align 4, !tbaa !52
  store ptr %4, ptr %16, align 8, !tbaa !53
  store ptr %5, ptr %17, align 8, !tbaa !89
  store i32 %6, ptr %18, align 4, !tbaa !11
  store i32 %7, ptr %19, align 4, !tbaa !11
  store i32 %8, ptr %20, align 4, !tbaa !11
  store i32 %9, ptr %21, align 4, !tbaa !11
  store i32 %10, ptr %22, align 4, !tbaa !11
  call void @llvm.lifetime.start.p0(i64 8, ptr %23) #10
  %27 = load ptr, ptr %12, align 8, !tbaa !9
  store ptr %27, ptr %23, align 8, !tbaa !114
  call void @llvm.lifetime.start.p0(i64 4, ptr %24) #10
  store i32 0, ptr %24, align 4, !tbaa !11
  br label %28

28:                                               ; preds = %183, %11
  %29 = load i32, ptr %24, align 4, !tbaa !11
  %30 = load i32, ptr %13, align 4, !tbaa !11
  %31 = icmp slt i32 %29, %30
  br i1 %31, label %32, label %186

32:                                               ; preds = %28
  call void @llvm.lifetime.start.p0(i64 4, ptr %25) #10
  %33 = load ptr, ptr %17, align 8, !tbaa !89
  %34 = getelementptr inbounds ptr, ptr %33, i64 0
  %35 = load ptr, ptr %34, align 8, !tbaa !9
  %36 = load i32, ptr %24, align 4, !tbaa !11
  %37 = mul nsw i32 2, %36
  %38 = sext i32 %37 to i64
  %39 = getelementptr inbounds i8, ptr %35, i64 %38
  %40 = load i16, ptr %39, align 2, !tbaa !91
  %41 = zext i16 %40 to i32
  %42 = mul nsw i32 %41, -1
  %43 = load ptr, ptr %17, align 8, !tbaa !89
  %44 = getelementptr inbounds ptr, ptr %43, i64 1
  %45 = load ptr, ptr %44, align 8, !tbaa !9
  %46 = load i32, ptr %24, align 4, !tbaa !11
  %47 = mul nsw i32 2, %46
  %48 = sext i32 %47 to i64
  %49 = getelementptr inbounds i8, ptr %45, i64 %48
  %50 = load i16, ptr %49, align 2, !tbaa !91
  %51 = zext i16 %50 to i32
  %52 = mul nsw i32 %51, -2
  %53 = add nsw i32 %42, %52
  %54 = load ptr, ptr %17, align 8, !tbaa !89
  %55 = getelementptr inbounds ptr, ptr %54, i64 2
  %56 = load ptr, ptr %55, align 8, !tbaa !9
  %57 = load i32, ptr %24, align 4, !tbaa !11
  %58 = mul nsw i32 2, %57
  %59 = sext i32 %58 to i64
  %60 = getelementptr inbounds i8, ptr %56, i64 %59
  %61 = load i16, ptr %60, align 2, !tbaa !91
  %62 = zext i16 %61 to i32
  %63 = mul nsw i32 %62, -1
  %64 = add nsw i32 %53, %63
  %65 = load ptr, ptr %17, align 8, !tbaa !89
  %66 = getelementptr inbounds ptr, ptr %65, i64 6
  %67 = load ptr, ptr %66, align 8, !tbaa !9
  %68 = load i32, ptr %24, align 4, !tbaa !11
  %69 = mul nsw i32 2, %68
  %70 = sext i32 %69 to i64
  %71 = getelementptr inbounds i8, ptr %67, i64 %70
  %72 = load i16, ptr %71, align 2, !tbaa !91
  %73 = zext i16 %72 to i32
  %74 = mul nsw i32 %73, 1
  %75 = add nsw i32 %64, %74
  %76 = load ptr, ptr %17, align 8, !tbaa !89
  %77 = getelementptr inbounds ptr, ptr %76, i64 7
  %78 = load ptr, ptr %77, align 8, !tbaa !9
  %79 = load i32, ptr %24, align 4, !tbaa !11
  %80 = mul nsw i32 2, %79
  %81 = sext i32 %80 to i64
  %82 = getelementptr inbounds i8, ptr %78, i64 %81
  %83 = load i16, ptr %82, align 2, !tbaa !91
  %84 = zext i16 %83 to i32
  %85 = mul nsw i32 %84, 2
  %86 = add nsw i32 %75, %85
  %87 = load ptr, ptr %17, align 8, !tbaa !89
  %88 = getelementptr inbounds ptr, ptr %87, i64 8
  %89 = load ptr, ptr %88, align 8, !tbaa !9
  %90 = load i32, ptr %24, align 4, !tbaa !11
  %91 = mul nsw i32 2, %90
  %92 = sext i32 %91 to i64
  %93 = getelementptr inbounds i8, ptr %89, i64 %92
  %94 = load i16, ptr %93, align 2, !tbaa !91
  %95 = zext i16 %94 to i32
  %96 = mul nsw i32 %95, 1
  %97 = add nsw i32 %86, %96
  %98 = sitofp i32 %97 to float
  store float %98, ptr %25, align 4, !tbaa !52
  call void @llvm.lifetime.start.p0(i64 4, ptr %26) #10
  %99 = load ptr, ptr %17, align 8, !tbaa !89
  %100 = getelementptr inbounds ptr, ptr %99, i64 0
  %101 = load ptr, ptr %100, align 8, !tbaa !9
  %102 = load i32, ptr %24, align 4, !tbaa !11
  %103 = mul nsw i32 2, %102
  %104 = sext i32 %103 to i64
  %105 = getelementptr inbounds i8, ptr %101, i64 %104
  %106 = load i16, ptr %105, align 2, !tbaa !91
  %107 = zext i16 %106 to i32
  %108 = mul nsw i32 %107, -1
  %109 = load ptr, ptr %17, align 8, !tbaa !89
  %110 = getelementptr inbounds ptr, ptr %109, i64 2
  %111 = load ptr, ptr %110, align 8, !tbaa !9
  %112 = load i32, ptr %24, align 4, !tbaa !11
  %113 = mul nsw i32 2, %112
  %114 = sext i32 %113 to i64
  %115 = getelementptr inbounds i8, ptr %111, i64 %114
  %116 = load i16, ptr %115, align 2, !tbaa !91
  %117 = zext i16 %116 to i32
  %118 = mul nsw i32 %117, 1
  %119 = add nsw i32 %108, %118
  %120 = load ptr, ptr %17, align 8, !tbaa !89
  %121 = getelementptr inbounds ptr, ptr %120, i64 3
  %122 = load ptr, ptr %121, align 8, !tbaa !9
  %123 = load i32, ptr %24, align 4, !tbaa !11
  %124 = mul nsw i32 2, %123
  %125 = sext i32 %124 to i64
  %126 = getelementptr inbounds i8, ptr %122, i64 %125
  %127 = load i16, ptr %126, align 2, !tbaa !91
  %128 = zext i16 %127 to i32
  %129 = mul nsw i32 %128, -2
  %130 = add nsw i32 %119, %129
  %131 = load ptr, ptr %17, align 8, !tbaa !89
  %132 = getelementptr inbounds ptr, ptr %131, i64 5
  %133 = load ptr, ptr %132, align 8, !tbaa !9
  %134 = load i32, ptr %24, align 4, !tbaa !11
  %135 = mul nsw i32 2, %134
  %136 = sext i32 %135 to i64
  %137 = getelementptr inbounds i8, ptr %133, i64 %136
  %138 = load i16, ptr %137, align 2, !tbaa !91
  %139 = zext i16 %138 to i32
  %140 = mul nsw i32 %139, 2
  %141 = add nsw i32 %130, %140
  %142 = load ptr, ptr %17, align 8, !tbaa !89
  %143 = getelementptr inbounds ptr, ptr %142, i64 6
  %144 = load ptr, ptr %143, align 8, !tbaa !9
  %145 = load i32, ptr %24, align 4, !tbaa !11
  %146 = mul nsw i32 2, %145
  %147 = sext i32 %146 to i64
  %148 = getelementptr inbounds i8, ptr %144, i64 %147
  %149 = load i16, ptr %148, align 2, !tbaa !91
  %150 = zext i16 %149 to i32
  %151 = mul nsw i32 %150, -1
  %152 = add nsw i32 %141, %151
  %153 = load ptr, ptr %17, align 8, !tbaa !89
  %154 = getelementptr inbounds ptr, ptr %153, i64 8
  %155 = load ptr, ptr %154, align 8, !tbaa !9
  %156 = load i32, ptr %24, align 4, !tbaa !11
  %157 = mul nsw i32 2, %156
  %158 = sext i32 %157 to i64
  %159 = getelementptr inbounds i8, ptr %155, i64 %158
  %160 = load i16, ptr %159, align 2, !tbaa !91
  %161 = zext i16 %160 to i32
  %162 = mul nsw i32 %161, 1
  %163 = add nsw i32 %152, %162
  %164 = sitofp i32 %163 to float
  store float %164, ptr %26, align 4, !tbaa !52
  %165 = load float, ptr %25, align 4, !tbaa !52
  %166 = load float, ptr %25, align 4, !tbaa !52
  %167 = load float, ptr %26, align 4, !tbaa !52
  %168 = load float, ptr %26, align 4, !tbaa !52
  %169 = fmul nsz float %167, %168
  %170 = call nsz float @llvm.fmuladd.f32(float %165, float %166, float %169)
  %171 = call nsz float @llvm.sqrt.f32(float %170)
  %172 = load float, ptr %14, align 4, !tbaa !52
  %173 = load float, ptr %15, align 4, !tbaa !52
  %174 = call nsz float @llvm.fmuladd.f32(float %171, float %172, float %173)
  %175 = fptosi float %174 to i32
  %176 = load i32, ptr %18, align 4, !tbaa !11
  %177 = call i32 @av_clip_c(i32 noundef %175, i32 noundef 0, i32 noundef %176) #12
  %178 = trunc i32 %177 to i16
  %179 = load ptr, ptr %23, align 8, !tbaa !114
  %180 = load i32, ptr %24, align 4, !tbaa !11
  %181 = sext i32 %180 to i64
  %182 = getelementptr inbounds i16, ptr %179, i64 %181
  store i16 %178, ptr %182, align 2, !tbaa !117
  call void @llvm.lifetime.end.p0(i64 4, ptr %26) #10
  call void @llvm.lifetime.end.p0(i64 4, ptr %25) #10
  br label %183

183:                                              ; preds = %32
  %184 = load i32, ptr %24, align 4, !tbaa !11
  %185 = add nsw i32 %184, 1
  store i32 %185, ptr %24, align 4, !tbaa !11
  br label %28, !llvm.loop !134

186:                                              ; preds = %28
  call void @llvm.lifetime.end.p0(i64 4, ptr %24) #10
  call void @llvm.lifetime.end.p0(i64 8, ptr %23) #10
  ret void
}