; Function Attrs: nofree norecurse nosync nounwind memory(read, argmem: readwrite, inaccessiblemem: none) uwtable
define internal void @filter16_sobel(ptr noundef writeonly captures(none) %0, i32 noundef %1, float noundef %2, float noundef %3, ptr readnone captures(none) %4, ptr noundef readonly captures(none) %5, i32 noundef %6, i32 %7, i32 %8, i32 %9, i32 %10) #6 {
  %12 = icmp sgt i32 %1, 0
  br i1 %12, label %.lr.ph, label %._crit_edge

.lr.ph:                                           ; preds = %11
  %13 = load ptr, ptr %5, align 8, !tbaa !46
  %14 = getelementptr inbounds nuw i8, ptr %5, i64 8
  %15 = load ptr, ptr %14, align 8, !tbaa !46
  %16 = getelementptr inbounds nuw i8, ptr %5, i64 16
  %17 = load ptr, ptr %16, align 8, !tbaa !46
  %18 = getelementptr inbounds nuw i8, ptr %5, i64 48
  %19 = load ptr, ptr %18, align 8, !tbaa !46
  %20 = getelementptr inbounds nuw i8, ptr %5, i64 56
  %21 = load ptr, ptr %20, align 8, !tbaa !46
  %22 = getelementptr inbounds nuw i8, ptr %5, i64 64
  %23 = load ptr, ptr %22, align 8, !tbaa !46
  %24 = getelementptr inbounds nuw i8, ptr %5, i64 24
  %25 = load ptr, ptr %24, align 8, !tbaa !46
  %26 = getelementptr inbounds nuw i8, ptr %5, i64 40
  %27 = load ptr, ptr %26, align 8, !tbaa !46
  %wide.trip.count = zext nneg i32 %1 to i64
  br label %28

28:                                               ; preds = %.lr.ph, %28
  %indvars.iv = phi i64 [ 0, %.lr.ph ], [ %indvars.iv.next, %28 ]
  %29 = shl nuw nsw i64 %indvars.iv, 1
  %30 = getelementptr inbounds nuw i8, ptr %13, i64 %29
  %31 = load i16, ptr %30, align 2, !tbaa !82
  %32 = zext i16 %31 to i32
  %33 = getelementptr inbounds nuw i8, ptr %15, i64 %29
  %34 = load i16, ptr %33, align 2, !tbaa !82
  %35 = zext i16 %34 to i32
  %36 = getelementptr inbounds nuw i8, ptr %17, i64 %29
  %37 = load i16, ptr %36, align 2, !tbaa !82
  %38 = zext i16 %37 to i32
  %39 = getelementptr inbounds nuw i8, ptr %19, i64 %29
  %40 = load i16, ptr %39, align 2, !tbaa !82
  %41 = zext i16 %40 to i32
  %42 = getelementptr inbounds nuw i8, ptr %21, i64 %29
  %43 = load i16, ptr %42, align 2, !tbaa !82
  %44 = zext i16 %43 to i32
  %45 = getelementptr inbounds nuw i8, ptr %23, i64 %29
  %46 = load i16, ptr %45, align 2, !tbaa !82
  %47 = zext i16 %46 to i32
  %reass.add = sub nsw i32 %44, %35
  %reass.mul = shl nsw i32 %reass.add, 1
  %48 = add nuw nsw i32 %38, %32
  %49 = sub nsw i32 %41, %48
  %50 = add nsw i32 %49, %47
  %51 = add nsw i32 %50, %reass.mul
  %52 = sitofp i32 %51 to float
  %53 = getelementptr inbounds nuw i8, ptr %25, i64 %29
  %54 = load i16, ptr %53, align 2, !tbaa !82
  %55 = zext i16 %54 to i32
  %56 = getelementptr inbounds nuw i8, ptr %27, i64 %29
  %57 = load i16, ptr %56, align 2, !tbaa !82
  %58 = zext i16 %57 to i32
  %reass.add43 = sub nsw i32 %58, %55
  %reass.mul44 = shl nsw i32 %reass.add43, 1
  %59 = add nuw nsw i32 %32, %41
  %60 = sub nsw i32 %38, %59
  %61 = add nsw i32 %60, %47
  %62 = add nsw i32 %61, %reass.mul44
  %63 = sitofp i32 %62 to float
  %64 = fmul nsz float %63, %63
  %65 = tail call nsz float @llvm.fmuladd.f32(float %52, float %52, float %64)
  %66 = tail call nsz float @llvm.sqrt.f32(float %65)
  %67 = tail call nsz float @llvm.fmuladd.f32(float %66, float %2, float %3)
  %68 = fptosi float %67 to i32
  %69 = icmp slt i32 %68, 0
  %..i = tail call i32 @llvm.smin.i32(i32 %6, i32 %68)
  %70 = trunc i32 %..i to i16
  %71 = select i1 %69, i16 0, i16 %70
  %72 = getelementptr inbounds nuw i16, ptr %0, i64 %indvars.iv
  store i16 %71, ptr %72, align 2, !tbaa !103
  %indvars.iv.next = add nuw nsw i64 %indvars.iv, 1
  %exitcond.not = icmp eq i64 %indvars.iv.next, %wide.trip.count
  br i1 %exitcond.not, label %._crit_edge, label %28, !llvm.loop !121

._crit_edge:                                      ; preds = %28, %11
  ret void
}